target datalayout = "e-m:e-p270:32:32-p271:32:32-p272:64:64-i64:64-i128:128-f80:128-n8:16:32:64-S128"
target triple = "x86_64-pc-linux-gnu"

%struct.QualCost = type { double, double }
%struct.RelOptInfo = type { i32, i32, ptr, double, i8, i8, i8, ptr, ptr, ptr, ptr, ptr, ptr, ptr, ptr, ptr, ptr, i32, i32, i32, i16, i16, ptr, ptr, ptr, ptr, ptr, ptr, ptr, ptr, i32, double, double, ptr, ptr, ptr, i32, i32, i32, i32, i8, ptr, ptr, ptr, ptr, ptr, %struct.QualCost, i32, ptr, i8, i8, ptr, ptr, ptr, ptr, i32, ptr, i8, ptr, ptr, ptr, ptr, ptr, ptr }
%struct.PathTarget = type { i32, ptr, ptr, %struct.QualCost, i32, i32 }
%struct.PlannerInfo = type { i32, ptr, ptr, i32, ptr, ptr, ptr, ptr, i32, ptr, ptr, ptr, ptr, ptr, ptr, ptr, ptr, i32, ptr, ptr, ptr, ptr, ptr, i8, ptr, ptr, ptr, ptr, ptr, i32, ptr, ptr, ptr, ptr, ptr, ptr, ptr, i32, ptr, ptr, ptr, i32, ptr, ptr, ptr, ptr, ptr, ptr, [8 x ptr], [8 x ptr], ptr, ptr, ptr, ptr, ptr, ptr, ptr, double, double, double, i32, i8, i8, i8, i8, i8, i8, i8, i32, ptr, ptr, i32, i8, i8, i32, ptr, ptr, ptr, ptr, ptr, ptr, i8, ptr }
%struct.ForEachState = type { ptr, i32 }
%struct.List = type { i32, i32, i32, ptr, [0 x %union.ListCell] }
%union.ListCell = type { ptr }
%struct.cost_qual_eval_context = type { ptr, %struct.QualCost }
%struct.Node = type { i32 }
%struct.Expr = type { i32 }
%struct.Var = type { %struct.Expr, i32, i16, i32, i32, i32, ptr, i32, i32, i32, i16, i32 }

; Function Attrs: nounwind uwtable
define dso_local i32 @clamp_width_est(i64 noundef %0) #0 {
  %2 = alloca i32, align 4
  %3 = alloca i64, align 8
  store i64 %0, ptr %3, align 8
  %4 = load i64, ptr %3, align 8
  %5 = icmp ugt i64 %4, 1073741823
  br i1 %5, label %6, label %7

6:                                                ; preds = %1
  store i32 1073741823, ptr %2, align 4
  br label %10

7:                                                ; preds = %1
  %8 = load i64, ptr %3, align 8
  %9 = trunc i64 %8 to i32
  store i32 %9, ptr %2, align 4
  br label %10

10:                                               ; preds = %7, %6
  %11 = load i32, ptr %2, align 4
  ret i32 %11
}

; Function Attrs: nounwind uwtable
define dso_local void @cost_qual_eval_node(ptr noundef %0, ptr noundef %1, ptr noundef %2) #0 {
  %4 = alloca ptr, align 8
  %5 = alloca ptr, align 8
  %6 = alloca ptr, align 8
  %7 = alloca %struct.cost_qual_eval_context, align 8
  store ptr %0, ptr %4, align 8
  store ptr %1, ptr %5, align 8
  store ptr %2, ptr %6, align 8
  call void @llvm.lifetime.start.p0(i64 24, ptr %7) #9
  %8 = load ptr, ptr %6, align 8
  %9 = getelementptr inbounds nuw %struct.cost_qual_eval_context, ptr %7, i32 0, i32 0
  store ptr %8, ptr %9, align 8
  %10 = getelementptr inbounds nuw %struct.cost_qual_eval_context, ptr %7, i32 0, i32 1
  %11 = getelementptr inbounds nuw %struct.QualCost, ptr %10, i32 0, i32 0
  store double 0.000000e+00, ptr %11, align 8
  %12 = getelementptr inbounds nuw %struct.cost_qual_eval_context, ptr %7, i32 0, i32 1
  %13 = getelementptr inbounds nuw %struct.QualCost, ptr %12, i32 0, i32 1
  store double 0.000000e+00, ptr %13, align 8
  %14 = load ptr, ptr %5, align 8
  %15 = call zeroext i1 @cost_qual_eval_walker(ptr noundef %14, ptr noundef %7)
  %16 = load ptr, ptr %4, align 8
  %17 = getelementptr inbounds nuw %struct.cost_qual_eval_context, ptr %7, i32 0, i32 1
  call void @llvm.memcpy.p0.p0.i64(ptr align 8 %16, ptr align 8 %17, i64 16, i1 false)
  call void @llvm.lifetime.end.p0(i64 24, ptr %7) #9
  ret void
}

; Function Attrs: nounwind uwtable
define internal i32 @get_expr_width(ptr noundef %0, ptr noundef %1) #0 {
  %3 = alloca i32, align 4
  %4 = alloca ptr, align 8
  %5 = alloca ptr, align 8
  %6 = alloca i32, align 4
  %7 = alloca ptr, align 8
  %8 = alloca ptr, align 8
  %9 = alloca i32, align 4
  %10 = alloca i32, align 4
  store ptr %0, ptr %4, align 8
  store ptr %1, ptr %5, align 8
  call void @llvm.lifetime.start.p0(i64 4, ptr %6) #9
  %11 = load ptr, ptr %5, align 8
  %12 = getelementptr inbounds nuw %struct.Node, ptr %11, i32 0, i32 0
  %13 = load i32, ptr %12, align 4
  %14 = icmp eq i32 %13, 6
  br i1 %14, label %15, label %105

15:                                               ; preds = %2
  call void @llvm.lifetime.start.p0(i64 8, ptr %7) #9
  %16 = load ptr, ptr %5, align 8
  store ptr %16, ptr %7, align 8
  %17 = load ptr, ptr %7, align 8
  %18 = getelementptr inbounds nuw %struct.Var, ptr %17, i32 0, i32 1
  %19 = load i32, ptr %18, align 4
  %20 = icmp slt i32 %19, 0
  br i1 %20, label %95, label %21

21:                                               ; preds = %15
  %22 = load ptr, ptr %7, align 8
  %23 = getelementptr inbounds nuw %struct.Var, ptr %22, i32 0, i32 1
  %24 = load i32, ptr %23, align 4
  %25 = load ptr, ptr %4, align 8
  %26 = getelementptr inbounds nuw %struct.PlannerInfo, ptr %25, i32 0, i32 8
  %27 = load i32, ptr %26, align 8
  %28 = icmp slt i32 %24, %27
  br i1 %28, label %29, label %95

29:                                               ; preds = %21
  call void @llvm.lifetime.start.p0(i64 8, ptr %8) #9
  %30 = load ptr, ptr %4, align 8
  %31 = getelementptr inbounds nuw %struct.PlannerInfo, ptr %30, i32 0, i32 7
  %32 = load ptr, ptr %31, align 8
  %33 = load ptr, ptr %7, align 8
  %34 = getelementptr inbounds nuw %struct.Var, ptr %33, i32 0, i32 1
  %35 = load i32, ptr %34, align 4
  %36 = sext i32 %35 to i64
  %37 = getelementptr inbounds ptr, ptr %32, i64 %36
  %38 = load ptr, ptr %37, align 8
  store ptr %38, ptr %8, align 8
  %39 = load ptr, ptr %8, align 8
  %40 = icmp ne ptr %39, null
  br i1 %40, label %41, label %91

41:                                               ; preds = %29
  %42 = load ptr, ptr %7, align 8
  %43 = getelementptr inbounds nuw %struct.Var, ptr %42, i32 0, i32 2
  %44 = load i16, ptr %43, align 8
  %45 = sext i16 %44 to i32
  %46 = load ptr, ptr %8, align 8
  %47 = getelementptr inbounds nuw %struct.RelOptInfo, ptr %46, i32 0, i32 20
  %48 = load i16, ptr %47, align 4
  %49 = sext i16 %48 to i32
  %50 = icmp sge i32 %45, %49
  br i1 %50, label %51, label %91

51:                                               ; preds = %41
  %52 = load ptr, ptr %7, align 8
  %53 = getelementptr inbounds nuw %struct.Var, ptr %52, i32 0, i32 2
  %54 = load i16, ptr %53, align 8
  %55 = sext i16 %54 to i32
  %56 = load ptr, ptr %8, align 8
  %57 = getelementptr inbounds nuw %struct.RelOptInfo, ptr %56, i32 0, i32 21
  %58 = load i16, ptr %57, align 2
  %59 = sext i16 %58 to i32
  %60 = icmp sle i32 %55, %59
  br i1 %60, label %61, label %91

61:                                               ; preds = %51
  call void @llvm.lifetime.start.p0(i64 4, ptr %9) #9
  %62 = load ptr, ptr %7, align 8
  %63 = getelementptr inbounds nuw %struct.Var, ptr %62, i32 0, i32 2
  %64 = load i16, ptr %63, align 8
  %65 = sext i16 %64 to i32
  %66 = load ptr, ptr %8, align 8
  %67 = getelementptr inbounds nuw %struct.RelOptInfo, ptr %66, i32 0, i32 20
  %68 = load i16, ptr %67, align 4
  %69 = sext i16 %68 to i32
  %70 = sub i32 %65, %69
  store i32 %70, ptr %9, align 4
  %71 = load ptr, ptr %8, align 8
  %72 = getelementptr inbounds nuw %struct.RelOptInfo, ptr %71, i32 0, i32 23
  %73 = load ptr, ptr %72, align 8
  %74 = load i32, ptr %9, align 4
  %75 = sext i32 %74 to i64
  %76 = getelementptr inbounds i32, ptr %73, i64 %75
  %77 = load i32, ptr %76, align 4
  %78 = icmp sgt i32 %77, 0
  br i1 %78, label %79, label %87

79:                                               ; preds = %61
  %80 = load ptr, ptr %8, align 8
  %81 = getelementptr inbounds nuw %struct.RelOptInfo, ptr %80, i32 0, i32 23
  %82 = load ptr, ptr %81, align 8
  %83 = load i32, ptr %9, align 4
  %84 = sext i32 %83 to i64
  %85 = getelementptr inbounds i32, ptr %82, i64 %84
  %86 = load i32, ptr %85, align 4
  store i32 %86, ptr %3, align 4
  store i32 1, ptr %10, align 4
  br label %88

87:                                               ; preds = %61
  store i32 0, ptr %10, align 4
  br label %88

88:                                               ; preds = %87, %79
  call void @llvm.lifetime.end.p0(i64 4, ptr %9) #9
  %89 = load i32, ptr %10, align 4
  switch i32 %89, label %92 [
    i32 0, label %90
  ]

90:                                               ; preds = %88
  br label %91

91:                                               ; preds = %90, %51, %41, %29
  store i32 0, ptr %10, align 4
  br label %92

92:                                               ; preds = %91, %88
  call void @llvm.lifetime.end.p0(i64 8, ptr %8) #9
  %93 = load i32, ptr %10, align 4
  switch i32 %93, label %104 [
    i32 0, label %94
  ]

94:                                               ; preds = %92
  br label %95

95:                                               ; preds = %94, %21, %15
  %96 = load ptr, ptr %7, align 8
  %97 = getelementptr inbounds nuw %struct.Var, ptr %96, i32 0, i32 3
  %98 = load i32, ptr %97, align 4
  %99 = load ptr, ptr %7, align 8
  %100 = getelementptr inbounds nuw %struct.Var, ptr %99, i32 0, i32 4
  %101 = load i32, ptr %100, align 8
  %102 = call i32 @get_typavgwidth(i32 noundef %98, i32 noundef %101)
  store i32 %102, ptr %6, align 4
  %103 = load i32, ptr %6, align 4
  store i32 %103, ptr %3, align 4
  store i32 1, ptr %10, align 4
  br label %104

104:                                              ; preds = %95, %92
  call void @llvm.lifetime.end.p0(i64 8, ptr %7) #9
  br label %112

105:                                              ; preds = %2
  %106 = load ptr, ptr %5, align 8
  %107 = call i32 @exprType(ptr noundef %106)
  %108 = load ptr, ptr %5, align 8
  %109 = call i32 @exprTypmod(ptr noundef %108)
  %110 = call i32 @get_typavgwidth(i32 noundef %107, i32 noundef %109)
  store i32 %110, ptr %6, align 4
  %111 = load i32, ptr %6, align 4
  store i32 %111, ptr %3, align 4
  store i32 1, ptr %10, align 4
  br label %112

112:                                              ; preds = %105, %104
  call void @llvm.lifetime.end.p0(i64 4, ptr %6) #9
  %113 = load i32, ptr %3, align 4
  ret i32 %113
}

; Function Attrs: nounwind uwtable
define dso_local ptr @set_pathtarget_cost_width(ptr noundef %0, ptr noundef %1) #0 {
  %3 = alloca ptr, align 8
  %4 = alloca ptr, align 8
  %5 = alloca i64, align 8
  %6 = alloca ptr, align 8
  %7 = alloca %struct.ForEachState, align 8
  %8 = alloca ptr, align 8
  %9 = alloca %struct.QualCost, align 8
  store ptr %0, ptr %3, align 8
  store ptr %1, ptr %4, align 8
  call void @llvm.lifetime.start.p0(i64 8, ptr %5) #9
  store i64 0, ptr %5, align 8
  call void @llvm.lifetime.start.p0(i64 8, ptr %6) #9
  %10 = load ptr, ptr %4, align 8
  %11 = getelementptr inbounds nuw %struct.PathTarget, ptr %10, i32 0, i32 3
  %12 = getelementptr inbounds nuw %struct.QualCost, ptr %11, i32 0, i32 0
  store double 0.000000e+00, ptr %12, align 8
  %13 = load ptr, ptr %4, align 8
  %14 = getelementptr inbounds nuw %struct.PathTarget, ptr %13, i32 0, i32 3
  %15 = getelementptr inbounds nuw %struct.QualCost, ptr %14, i32 0, i32 1
  store double 0.000000e+00, ptr %15, align 8
  call void @llvm.lifetime.start.p0(i64 16, ptr %7) #9
  %16 = getelementptr inbounds nuw %struct.ForEachState, ptr %7, i32 0, i32 0
  %17 = load ptr, ptr %4, align 8
  %18 = getelementptr inbounds nuw %struct.PathTarget, ptr %17, i32 0, i32 1
  %19 = load ptr, ptr %18, align 8
  store ptr %19, ptr %16, align 8
  %20 = getelementptr inbounds nuw %struct.ForEachState, ptr %7, i32 0, i32 1
  store i32 0, ptr %20, align 8
  %21 = getelementptr i8, ptr %7, i64 12
  call void @llvm.memset.p0.i64(ptr align 4 %21, i8 0, i64 4, i1 false)
  br label %22

22:                                               ; preds = %79, %2
  %23 = getelementptr inbounds nuw %struct.ForEachState, ptr %7, i32 0, i32 0
  %24 = load ptr, ptr %23, align 8
  %25 = icmp ne ptr %24, null
  br i1 %25, label %26, label %43

26:                                               ; preds = %22
  %27 = getelementptr inbounds nuw %struct.ForEachState, ptr %7, i32 0, i32 1
  %28 = load i32, ptr %27, align 8
  %29 = getelementptr inbounds nuw %struct.ForEachState, ptr %7, i32 0, i32 0
  %30 = load ptr, ptr %29, align 8
  %31 = getelementptr inbounds nuw %struct.List, ptr %30, i32 0, i32 1
  %32 = load i32, ptr %31, align 4
  %33 = icmp slt i32 %28, %32
  br i1 %33, label %34, label %43

34:                                               ; preds = %26
  %35 = getelementptr inbounds nuw %struct.ForEachState, ptr %7, i32 0, i32 0
  %36 = load ptr, ptr %35, align 8
  %37 = getelementptr inbounds nuw %struct.List, ptr %36, i32 0, i32 3
  %38 = load ptr, ptr %37, align 8
  %39 = getelementptr inbounds nuw %struct.ForEachState, ptr %7, i32 0, i32 1
  %40 = load i32, ptr %39, align 8
  %41 = sext i32 %40 to i64
  %42 = getelementptr inbounds %union.ListCell, ptr %38, i64 %41
  store ptr %42, ptr %6, align 8
  br label %44

43:                                               ; preds = %26, %22
  store ptr null, ptr %6, align 8
  br label %44

44:                                               ; preds = %43, %34
  %45 = phi i32 [ 1, %34 ], [ 0, %43 ]
  %46 = icmp ne i32 %45, 0
  br i1 %46, label %48, label %47

47:                                               ; preds = %44
  call void @llvm.lifetime.end.p0(i64 16, ptr %7) #9
  br label %83

48:                                               ; preds = %44
  call void @llvm.lifetime.start.p0(i64 8, ptr %8) #9
  %49 = load ptr, ptr %6, align 8
  %50 = load ptr, ptr %49, align 8
  store ptr %50, ptr %8, align 8
  %51 = load ptr, ptr %3, align 8
  %52 = load ptr, ptr %8, align 8
  %53 = call i32 @get_expr_width(ptr noundef %51, ptr noundef %52)
  %54 = sext i32 %53 to i64
  %55 = load i64, ptr %5, align 8
  %56 = add i64 %55, %54
  store i64 %56, ptr %5, align 8
  %57 = load ptr, ptr %8, align 8
  %58 = getelementptr inbounds nuw %struct.Node, ptr %57, i32 0, i32 0
  %59 = load i32, ptr %58, align 4
  %60 = icmp eq i32 %59, 6
  br i1 %60, label %78, label %61

61:                                               ; preds = %48
  call void @llvm.lifetime.start.p0(i64 16, ptr %9) #9
  %62 = load ptr, ptr %8, align 8
  %63 = load ptr, ptr %3, align 8
  call void @cost_qual_eval_node(ptr noundef %9, ptr noundef %62, ptr noundef %63)
  %64 = getelementptr inbounds nuw %struct.QualCost, ptr %9, i32 0, i32 0
  %65 = load double, ptr %64, align 8
  %66 = load ptr, ptr %4, align 8
  %67 = getelementptr inbounds nuw %struct.PathTarget, ptr %66, i32 0, i32 3
  %68 = getelementptr inbounds nuw %struct.QualCost, ptr %67, i32 0, i32 0
  %69 = load double, ptr %68, align 8
  %70 = fadd double %69, %65
  store double %70, ptr %68, align 8
  %71 = getelementptr inbounds nuw %struct.QualCost, ptr %9, i32 0, i32 1
  %72 = load double, ptr %71, align 8
  %73 = load ptr, ptr %4, align 8
  %74 = getelementptr inbounds nuw %struct.PathTarget, ptr %73, i32 0, i32 3
  %75 = getelementptr inbounds nuw %struct.QualCost, ptr %74, i32 0, i32 1
  %76 = load double, ptr %75, align 8
  %77 = fadd double %76, %72
  store double %77, ptr %75, align 8
  call void @llvm.lifetime.end.p0(i64 16, ptr %9) #9
  br label %78

78:                                               ; preds = %61, %48
  call void @llvm.lifetime.end.p0(i64 8, ptr %8) #9
  br label %79

79:                                               ; preds = %78
  %80 = getelementptr inbounds nuw %struct.ForEachState, ptr %7, i32 0, i32 1
  %81 = load i32, ptr %80, align 8
  %82 = add i32 %81, 1
  store i32 %82, ptr %80, align 8
  br label %22, !llvm.loop !33

83:                                               ; preds = %47
  %84 = load i64, ptr %5, align 8
  %85 = call i32 @clamp_width_est(i64 noundef %84)
  %86 = load ptr, ptr %4, align 8
  %87 = getelementptr inbounds nuw %struct.PathTarget, ptr %86, i32 0, i32 4
  store i32 %85, ptr %87, align 8
  %88 = load ptr, ptr %4, align 8
  call void @llvm.lifetime.end.p0(i64 8, ptr %6) #9
  call void @llvm.lifetime.end.p0(i64 8, ptr %5) #9
  ret ptr %88
}