; Function Attrs: nounwind uwtable
define dso_local noundef ptr @set_pathtarget_cost_width(ptr noundef %0, ptr noundef returned captures(ret: address, provenance) initializes((24, 40)) %1) local_unnamed_addr #2 {
  %3 = alloca %struct.cost_qual_eval_context, align 8
  %4 = getelementptr inbounds nuw i8, ptr %1, i64 24
  %5 = getelementptr inbounds nuw i8, ptr %1, i64 32
  %6 = getelementptr inbounds nuw i8, ptr %1, i64 8
  tail call void @llvm.memset.p0.i64(ptr noundef nonnull align 8 dereferenceable(16) %4, i8 0, i64 16, i1 false)
  %7 = load ptr, ptr %6, align 8
  %8 = getelementptr inbounds nuw i8, ptr %7, i64 4
  %.not = icmp eq ptr %7, null
  br i1 %.not, label %._crit_edge, label %.lr.ph

.lr.ph:                                           ; preds = %2
  %9 = getelementptr inbounds nuw i8, ptr %7, i64 16
  %10 = getelementptr inbounds nuw i8, ptr %0, i64 64
  %11 = getelementptr inbounds nuw i8, ptr %0, i64 56
  %12 = getelementptr inbounds nuw i8, ptr %3, i64 8
  %.sroa.4.0..sroa_idx = getelementptr inbounds nuw i8, ptr %3, i64 16
  %13 = load i32, ptr %8, align 4
  %14 = icmp sgt i32 %13, 0
  br i1 %14, label %.lr.ph30, label %._crit_edge

._crit_edge:                                      ; preds = %69, %.lr.ph, %2
  %.0.lcssa = phi i64 [ 0, %2 ], [ 0, %.lr.ph ], [ %60, %69 ]
  %.04.i = call i64 @llvm.umin.i64(i64 %.0.lcssa, i64 1073741823)
  %.0.i = trunc nuw nsw i64 %.04.i to i32
  %15 = getelementptr inbounds nuw i8, ptr %1, i64 40
  store i32 %.0.i, ptr %15, align 8
  ret ptr %1

.lr.ph30:                                         ; preds = %.lr.ph, %69
  %.02429 = phi i64 [ %60, %69 ], [ 0, %.lr.ph ]
  %indvars.iv28 = phi i64 [ %indvars.iv.next, %69 ], [ 0, %.lr.ph ]
  %16 = load ptr, ptr %9, align 8
  %17 = getelementptr inbounds nuw %union.ListCell, ptr %16, i64 %indvars.iv28
  %18 = load ptr, ptr %17, align 8
  %19 = load i32, ptr %18, align 4
  %20 = icmp eq i32 %19, 6
  br i1 %20, label %21, label %55

21:                                               ; preds = %.lr.ph30
  %22 = getelementptr inbounds nuw i8, ptr %18, i64 4
  %23 = load i32, ptr %22, align 4
  %24 = icmp slt i32 %23, 0
  br i1 %24, label %.thread.i, label %25

25:                                               ; preds = %21
  %26 = load i32, ptr %10, align 8
  %27 = icmp slt i32 %23, %26
  br i1 %27, label %28, label %.thread.i

28:                                               ; preds = %25
  %29 = load ptr, ptr %11, align 8
  %30 = zext nneg i32 %23 to i64
  %31 = getelementptr inbounds nuw ptr, ptr %29, i64 %30
  %32 = load ptr, ptr %31, align 8
  %.not.i = icmp eq ptr %32, null
  br i1 %.not.i, label %.thread.i, label %33

33:                                               ; preds = %28
  %34 = getelementptr inbounds nuw i8, ptr %18, i64 8
  %35 = load i16, ptr %34, align 8
  %36 = sext i16 %35 to i64
  %37 = getelementptr inbounds nuw i8, ptr %32, i64 124
  %38 = load i16, ptr %37, align 4
  %39 = sext i16 %38 to i64
  %.not33.i = icmp slt i16 %35, %38
  br i1 %.not33.i, label %.thread.i, label %40

40:                                               ; preds = %33
  %41 = getelementptr inbounds nuw i8, ptr %32, i64 126
  %42 = load i16, ptr %41, align 2
  %.not34.i = icmp sgt i16 %35, %42
  br i1 %.not34.i, label %.thread.i, label %43

43:                                               ; preds = %40
  %44 = sub nsw i64 %36, %39
  %45 = getelementptr inbounds nuw i8, ptr %32, i64 136
  %46 = load ptr, ptr %45, align 8
  %47 = getelementptr inbounds i32, ptr %46, i64 %44
  %48 = load i32, ptr %47, align 4
  %49 = icmp slt i32 %48, 1
  br i1 %49, label %.thread.i, label %get_expr_width.exit

.thread.i:                                        ; preds = %43, %40, %33, %28, %25, %21
  %50 = getelementptr inbounds nuw i8, ptr %18, i64 12
  %51 = load i32, ptr %50, align 4
  %52 = getelementptr inbounds nuw i8, ptr %18, i64 16
  %53 = load i32, ptr %52, align 8
  %54 = call i32 @get_typavgwidth(i32 noundef %51, i32 noundef %53) #17
  br label %get_expr_width.exit

55:                                               ; preds = %.lr.ph30
  %56 = call i32 @exprType(ptr noundef nonnull %18) #17
  %57 = call i32 @exprTypmod(ptr noundef nonnull %18) #17
  %58 = call i32 @get_typavgwidth(i32 noundef %56, i32 noundef %57) #17
  br label %get_expr_width.exit

get_expr_width.exit:                              ; preds = %43, %.thread.i, %55
  %.4.i = phi i32 [ %58, %55 ], [ %54, %.thread.i ], [ %48, %43 ]
  %59 = sext i32 %.4.i to i64
  %60 = add i64 %.02429, %59
  %61 = load i32, ptr %18, align 4
  %62 = icmp eq i32 %61, 6
  br i1 %62, label %69, label %63

63:                                               ; preds = %get_expr_width.exit
  call void @llvm.lifetime.start.p0(i64 24, ptr nonnull %3) #17
  store ptr %0, ptr %3, align 8
  call void @llvm.memset.p0.i64(ptr noundef nonnull align 8 dereferenceable(16) %12, i8 0, i64 16, i1 false)
  %64 = call zeroext i1 @cost_qual_eval_walker(ptr noundef nonnull %18, ptr noundef nonnull %3)
  %.sroa.0.0.copyload = load double, ptr %12, align 8
  %.sroa.4.0.copyload = load double, ptr %.sroa.4.0..sroa_idx, align 8
  call void @llvm.lifetime.end.p0(i64 24, ptr nonnull %3) #17
  %65 = load double, ptr %4, align 8
  %66 = fadd double %.sroa.0.0.copyload, %65
  store double %66, ptr %4, align 8
  %67 = load double, ptr %5, align 8
  %68 = fadd double %.sroa.4.0.copyload, %67
  store double %68, ptr %5, align 8
  br label %69

69:                                               ; preds = %63, %get_expr_width.exit
  %indvars.iv.next = add nuw nsw i64 %indvars.iv28, 1
  %70 = load i32, ptr %8, align 4
  %71 = sext i32 %70 to i64
  %72 = icmp slt i64 %indvars.iv.next, %71
  br i1 %72, label %.lr.ph30, label %._crit_edge
}